; Function Attrs: mustprogress nofree norecurse nosync nounwind willreturn memory(argmem: readwrite) uwtable
define void @_ZN7Imf_3_414ChromaticitiesC2ERKN9Imath_3_24Vec2IfEES5_S5_S5_(ptr noundef nonnull writeonly align 4 captures(none) dereferenceable(32) initializes((0, 32)) %0, ptr noundef nonnull readonly align 4 captures(none) dereferenceable(8) %1, ptr noundef nonnull readonly align 4 captures(none) dereferenceable(8) %2, ptr noundef nonnull readonly align 4 captures(none) dereferenceable(8) %3, ptr noundef nonnull readonly align 4 captures(none) dereferenceable(8) %4) unnamed_addr #3 align 2 {
  %6 = load float, ptr %1, align 4, !tbaa !3
  store float %6, ptr %0, align 4, !tbaa !3
  %7 = getelementptr inbounds nuw i8, ptr %0, i64 4
  %8 = getelementptr inbounds nuw i8, ptr %1, i64 4
  %9 = load float, ptr %8, align 4, !tbaa !8
  store float %9, ptr %7, align 4, !tbaa !8
  %10 = getelementptr inbounds nuw i8, ptr %0, i64 8
  %11 = load float, ptr %2, align 4, !tbaa !3
  store float %11, ptr %10, align 4, !tbaa !3
  %12 = getelementptr inbounds nuw i8, ptr %0, i64 12
  %13 = getelementptr inbounds nuw i8, ptr %2, i64 4
  %14 = load float, ptr %13, align 4, !tbaa !8
  store float %14, ptr %12, align 4, !tbaa !8
  %15 = getelementptr inbounds nuw i8, ptr %0, i64 16
  %16 = load float, ptr %3, align 4, !tbaa !3
  store float %16, ptr %15, align 4, !tbaa !3
  %17 = getelementptr inbounds nuw i8, ptr %0, i64 20
  %18 = getelementptr inbounds nuw i8, ptr %3, i64 4
  %19 = load float, ptr %18, align 4, !tbaa !8
  store float %19, ptr %17, align 4, !tbaa !8
  %20 = getelementptr inbounds nuw i8, ptr %0, i64 24
  %21 = load float, ptr %4, align 4, !tbaa !3
  store float %21, ptr %20, align 4, !tbaa !3
  %22 = getelementptr inbounds nuw i8, ptr %0, i64 28
  %23 = getelementptr inbounds nuw i8, ptr %4, i64 4
  %24 = load float, ptr %23, align 4, !tbaa !8
  store float %24, ptr %22, align 4, !tbaa !8
  ret void
}